target datalayout = "e-m:e-p270:32:32-p271:32:32-p272:64:64-i64:64-i128:128-f80:128-n8:16:32:64-S128"
target triple = "x86_64-pc-linux-gnu"

%struct.evp_pkey_asn1_method_st = type { i32, i32, i64, ptr, ptr, ptr, ptr, ptr, ptr, ptr, ptr, ptr, ptr, ptr, ptr, ptr, ptr, ptr, ptr, ptr, ptr, ptr, ptr, ptr, ptr, ptr, ptr, ptr, ptr, ptr, ptr, ptr, ptr, ptr, ptr, ptr, ptr, ptr, ptr, ptr, ptr }
%struct.evp_pkey_st = type { i32, i32, ptr, ptr, ptr, %union.legacy_pkey_st, %union.legacy_pkey_st, %struct.CRYPTO_REF_COUNT, ptr, ptr, i32, i8, %struct.crypto_ex_data_st, ptr, ptr, i64, ptr, i64, %struct.anon }
%union.legacy_pkey_st = type { ptr }
%struct.CRYPTO_REF_COUNT = type { i32 }
%struct.crypto_ex_data_st = type { ptr, ptr }
%struct.anon = type { i32, i32, i32 }
%struct.ecx_key_st = type { ptr, ptr, i8, [57 x i8], ptr, i64, i32, %struct.CRYPTO_REF_COUNT }

; Function Attrs: nounwind uwtable
define internal i32 @ecx_get_pub_key(ptr noundef %0, ptr noundef %1, ptr noundef %2) #0 {
  %4 = alloca i32, align 4
  %5 = alloca ptr, align 8
  %6 = alloca ptr, align 8
  %7 = alloca ptr, align 8
  %8 = alloca ptr, align 8
  %9 = alloca i32, align 4
  store ptr %0, ptr %5, align 8, !tbaa !3
  store ptr %1, ptr %6, align 8, !tbaa !14
  store ptr %2, ptr %7, align 8, !tbaa !52
  call void @llvm.lifetime.start.p0(i64 8, ptr %8) #4
  %10 = load ptr, ptr %5, align 8, !tbaa !3
  %11 = getelementptr inbounds nuw %struct.evp_pkey_st, ptr %10, i32 0, i32 5
  %12 = load ptr, ptr %11, align 8, !tbaa !33
  store ptr %12, ptr %8, align 8, !tbaa !31
  %13 = load ptr, ptr %6, align 8, !tbaa !14
  %14 = icmp eq ptr %13, null
  br i1 %14, label %15, label %42

15:                                               ; preds = %3
  %16 = load ptr, ptr %5, align 8, !tbaa !3
  %17 = getelementptr inbounds nuw %struct.evp_pkey_st, ptr %16, i32 0, i32 2
  %18 = load ptr, ptr %17, align 8, !tbaa !16
  %19 = getelementptr inbounds nuw %struct.evp_pkey_asn1_method_st, ptr %18, i32 0, i32 0
  %20 = load i32, ptr %19, align 8, !tbaa !29
  %21 = icmp eq i32 %20, 1034
  br i1 %21, label %29, label %22

22:                                               ; preds = %15
  %23 = load ptr, ptr %5, align 8, !tbaa !3
  %24 = getelementptr inbounds nuw %struct.evp_pkey_st, ptr %23, i32 0, i32 2
  %25 = load ptr, ptr %24, align 8, !tbaa !16
  %26 = getelementptr inbounds nuw %struct.evp_pkey_asn1_method_st, ptr %25, i32 0, i32 0
  %27 = load i32, ptr %26, align 8, !tbaa !29
  %28 = icmp eq i32 %27, 1087
  br i1 %28, label %29, label %30

29:                                               ; preds = %22, %15
  br label %38

30:                                               ; preds = %22
  %31 = load ptr, ptr %5, align 8, !tbaa !3
  %32 = getelementptr inbounds nuw %struct.evp_pkey_st, ptr %31, i32 0, i32 2
  %33 = load ptr, ptr %32, align 8, !tbaa !16
  %34 = getelementptr inbounds nuw %struct.evp_pkey_asn1_method_st, ptr %33, i32 0, i32 0
  %35 = load i32, ptr %34, align 8, !tbaa !29
  %36 = icmp eq i32 %35, 1035
  %37 = select i1 %36, i32 56, i32 57
  br label %38

38:                                               ; preds = %30, %29
  %39 = phi i32 [ 32, %29 ], [ %37, %30 ]
  %40 = sext i32 %39 to i64
  %41 = load ptr, ptr %7, align 8, !tbaa !52
  store i64 %40, ptr %41, align 8, !tbaa !46
  store i32 1, ptr %4, align 4
  store i32 1, ptr %9, align 4
  br label %108

42:                                               ; preds = %3
  %43 = load ptr, ptr %8, align 8, !tbaa !31
  %44 = icmp eq ptr %43, null
  br i1 %44, label %74, label %45

45:                                               ; preds = %42
  %46 = load ptr, ptr %7, align 8, !tbaa !52
  %47 = load i64, ptr %46, align 8, !tbaa !46
  %48 = load ptr, ptr %5, align 8, !tbaa !3
  %49 = getelementptr inbounds nuw %struct.evp_pkey_st, ptr %48, i32 0, i32 2
  %50 = load ptr, ptr %49, align 8, !tbaa !16
  %51 = getelementptr inbounds nuw %struct.evp_pkey_asn1_method_st, ptr %50, i32 0, i32 0
  %52 = load i32, ptr %51, align 8, !tbaa !29
  %53 = icmp eq i32 %52, 1034
  br i1 %53, label %61, label %54

54:                                               ; preds = %45
  %55 = load ptr, ptr %5, align 8, !tbaa !3
  %56 = getelementptr inbounds nuw %struct.evp_pkey_st, ptr %55, i32 0, i32 2
  %57 = load ptr, ptr %56, align 8, !tbaa !16
  %58 = getelementptr inbounds nuw %struct.evp_pkey_asn1_method_st, ptr %57, i32 0, i32 0
  %59 = load i32, ptr %58, align 8, !tbaa !29
  %60 = icmp eq i32 %59, 1087
  br i1 %60, label %61, label %62

61:                                               ; preds = %54, %45
  br label %70

62:                                               ; preds = %54
  %63 = load ptr, ptr %5, align 8, !tbaa !3
  %64 = getelementptr inbounds nuw %struct.evp_pkey_st, ptr %63, i32 0, i32 2
  %65 = load ptr, ptr %64, align 8, !tbaa !16
  %66 = getelementptr inbounds nuw %struct.evp_pkey_asn1_method_st, ptr %65, i32 0, i32 0
  %67 = load i32, ptr %66, align 8, !tbaa !29
  %68 = icmp eq i32 %67, 1035
  %69 = select i1 %68, i32 56, i32 57
  br label %70

70:                                               ; preds = %62, %61
  %71 = phi i32 [ 32, %61 ], [ %69, %62 ]
  %72 = sext i32 %71 to i64
  %73 = icmp ult i64 %47, %72
  br i1 %73, label %74, label %75

74:                                               ; preds = %70, %42
  store i32 0, ptr %4, align 4
  store i32 1, ptr %9, align 4
  br label %108

75:                                               ; preds = %70
  %76 = load ptr, ptr %5, align 8, !tbaa !3
  %77 = getelementptr inbounds nuw %struct.evp_pkey_st, ptr %76, i32 0, i32 2
  %78 = load ptr, ptr %77, align 8, !tbaa !16
  %79 = getelementptr inbounds nuw %struct.evp_pkey_asn1_method_st, ptr %78, i32 0, i32 0
  %80 = load i32, ptr %79, align 8, !tbaa !29
  %81 = icmp eq i32 %80, 1034
  br i1 %81, label %89, label %82

82:                                               ; preds = %75
  %83 = load ptr, ptr %5, align 8, !tbaa !3
  %84 = getelementptr inbounds nuw %struct.evp_pkey_st, ptr %83, i32 0, i32 2
  %85 = load ptr, ptr %84, align 8, !tbaa !16
  %86 = getelementptr inbounds nuw %struct.evp_pkey_asn1_method_st, ptr %85, i32 0, i32 0
  %87 = load i32, ptr %86, align 8, !tbaa !29
  %88 = icmp eq i32 %87, 1087
  br i1 %88, label %89, label %90

89:                                               ; preds = %82, %75
  br label %98

90:                                               ; preds = %82
  %91 = load ptr, ptr %5, align 8, !tbaa !3
  %92 = getelementptr inbounds nuw %struct.evp_pkey_st, ptr %91, i32 0, i32 2
  %93 = load ptr, ptr %92, align 8, !tbaa !16
  %94 = getelementptr inbounds nuw %struct.evp_pkey_asn1_method_st, ptr %93, i32 0, i32 0
  %95 = load i32, ptr %94, align 8, !tbaa !29
  %96 = icmp eq i32 %95, 1035
  %97 = select i1 %96, i32 56, i32 57
  br label %98

98:                                               ; preds = %90, %89
  %99 = phi i32 [ 32, %89 ], [ %97, %90 ]
  %100 = sext i32 %99 to i64
  %101 = load ptr, ptr %7, align 8, !tbaa !52
  store i64 %100, ptr %101, align 8, !tbaa !46
  %102 = load ptr, ptr %6, align 8, !tbaa !14
  %103 = load ptr, ptr %8, align 8, !tbaa !31
  %104 = getelementptr inbounds nuw %struct.ecx_key_st, ptr %103, i32 0, i32 3
  %105 = getelementptr inbounds [57 x i8], ptr %104, i64 0, i64 0
  %106 = load ptr, ptr %7, align 8, !tbaa !52
  %107 = load i64, ptr %106, align 8, !tbaa !46
  call void @llvm.memcpy.p0.p0.i64(ptr align 1 %102, ptr align 1 %105, i64 %107, i1 false)
  store i32 1, ptr %4, align 4
  store i32 1, ptr %9, align 4
  br label %108

108:                                              ; preds = %98, %74, %38
  call void @llvm.lifetime.end.p0(i64 8, ptr %8) #4
  %109 = load i32, ptr %4, align 4
  ret i32 %109
}