; Function Attrs: mustprogress nofree norecurse nosync nounwind willreturn memory(readwrite, inaccessiblemem: none) uwtable
define internal range(i32 0, 2) i32 @ecx_get_pub_key(ptr noundef readonly captures(none) %0, ptr noundef writeonly captures(address_is_null) %1, ptr noundef captures(none) %2) #3 {
  %4 = getelementptr inbounds nuw i8, ptr %0, i64 32
  %5 = load ptr, ptr %4, align 8, !tbaa !27
  %6 = icmp eq ptr %1, null
  br i1 %6, label %7, label %16

7:                                                ; preds = %3
  %8 = getelementptr inbounds nuw i8, ptr %0, i64 8
  %9 = load ptr, ptr %8, align 8, !tbaa !12
  %10 = load i32, ptr %9, align 8, !tbaa !25
  switch i32 %10, label %11 [
    i32 1034, label %14
    i32 1087, label %14
  ]

11:                                               ; preds = %7
  %12 = icmp eq i32 %10, 1035
  %13 = select i1 %12, i64 56, i64 57
  br label %14

14:                                               ; preds = %7, %7, %11
  %15 = phi i64 [ %13, %11 ], [ 32, %7 ], [ 32, %7 ]
  store i64 %15, ptr %2, align 8, !tbaa !35
  br label %36

16:                                               ; preds = %3
  %17 = icmp eq ptr %5, null
  br i1 %17, label %36, label %18

18:                                               ; preds = %16
  %19 = load i64, ptr %2, align 8, !tbaa !35
  %20 = getelementptr inbounds nuw i8, ptr %0, i64 8
  %21 = load ptr, ptr %20, align 8, !tbaa !12
  %22 = load i32, ptr %21, align 8, !tbaa !25
  switch i32 %22, label %23 [
    i32 1034, label %26
    i32 1087, label %26
  ]

23:                                               ; preds = %18
  %24 = icmp eq i32 %22, 1035
  %25 = select i1 %24, i64 56, i64 57
  br label %26

26:                                               ; preds = %18, %18, %23
  %27 = phi i64 [ %25, %23 ], [ 32, %18 ], [ 32, %18 ]
  %28 = icmp ult i64 %19, %27
  br i1 %28, label %36, label %29

29:                                               ; preds = %26
  switch i32 %22, label %30 [
    i32 1034, label %33
    i32 1087, label %33
  ]

30:                                               ; preds = %29
  %31 = icmp eq i32 %22, 1035
  %32 = select i1 %31, i64 56, i64 57
  br label %33

33:                                               ; preds = %29, %29, %30
  %34 = phi i64 [ %32, %30 ], [ 32, %29 ], [ 32, %29 ]
  store i64 %34, ptr %2, align 8, !tbaa !35
  %35 = getelementptr inbounds nuw i8, ptr %5, i64 17
  tail call void @llvm.memcpy.p0.p0.i64(ptr noundef nonnull align 1 dereferenceable(1) %1, ptr noundef nonnull align 1 dereferenceable(1) %35, i64 %34, i1 false)
  br label %36

36:                                               ; preds = %16, %26, %33, %14
  %.0 = phi i32 [ 1, %14 ], [ 1, %33 ], [ 0, %26 ], [ 0, %16 ]
  ret i32 %.0
}